target datalayout = "e-m:e-p270:32:32-p271:32:32-p272:64:64-i64:64-i128:128-f80:128-n8:16:32:64-S128"
target triple = "x86_64-pc-linux-gnu"

@.str.3 = private unnamed_addr constant [6 x i8] c"clamp\00", align 1
@.str.4 = private unnamed_addr constant [7 x i8] c"repeat\00", align 1
@.str.5 = private unnamed_addr constant [7 x i8] c"mirror\00", align 1
@.str.6 = private unnamed_addr constant [5 x i8] c"zero\00", align 1
@.str.7 = private unnamed_addr constant [4 x i8] c"one\00", align 1
@.str.8 = private unnamed_addr constant [8 x i8] c"invalid\00", align 1

; Function Attrs: noreturn nounwind uwtable
define linkonce_odr hidden void @__clang_call_terminate(ptr noundef %0) #10 comdat {
  %2 = call ptr @__cxa_begin_catch(ptr %0) #14
  call void @_ZSt9terminatev() #17
  unreachable
}

; Function Attrs: mustprogress nounwind uwtable
define linkonce_odr hidden noundef i64 @_ZNSt3__118__constexpr_strlenB8ne190000EPKc(ptr noundef %0) #0 comdat {
  %2 = alloca ptr, align 8
  store ptr %0, ptr %2, align 8
  %3 = load ptr, ptr %2, align 8
  %4 = call i64 @strlen(ptr noundef %3) #14
  ret i64 %4
}

; Function Attrs: mustprogress nounwind uwtable
define linkonce_odr hidden noundef i64 @_ZNSt3__111char_traitsIcE6lengthB8ne190000EPKc(ptr noundef %0) #0 comdat align 2 personality ptr @__gxx_personality_v0 {
  %2 = alloca ptr, align 8
  store ptr %0, ptr %2, align 8
  %3 = load ptr, ptr %2, align 8
  %4 = invoke noundef i64 @_ZNSt3__118__constexpr_strlenB8ne190000EPKc(ptr noundef %3)
          to label %5 unwind label %6

5:                                                ; preds = %1
  ret i64 %4

6:                                                ; preds = %1
  %7 = landingpad { ptr, i32 }
          catch ptr null
  %8 = extractvalue { ptr, i32 } %7, 0
  call void @__clang_call_terminate(ptr %8) #17
  unreachable
}

; Function Attrs: mustprogress uwtable
define linkonce_odr hidden noundef nonnull align 8 dereferenceable(8) ptr @_ZNSt3__1lsB8ne190000INS_11char_traitsIcEEEERNS_13basic_ostreamIcT_EES6_PKc(ptr noundef nonnull align 8 dereferenceable(8) %0, ptr noundef %1) #4 comdat {
  %3 = alloca ptr, align 8
  %4 = alloca ptr, align 8
  store ptr %0, ptr %3, align 8
  store ptr %1, ptr %4, align 8
  %5 = load ptr, ptr %3, align 8
  %6 = load ptr, ptr %4, align 8
  %7 = load ptr, ptr %4, align 8
  %8 = call noundef i64 @_ZNSt3__111char_traitsIcE6lengthB8ne190000EPKc(ptr noundef %7) #14
  %9 = call noundef nonnull align 8 dereferenceable(8) ptr @_ZNSt3__124__put_character_sequenceB8ne190000IcNS_11char_traitsIcEEEERNS_13basic_ostreamIT_T0_EES7_PKS4_m(ptr noundef nonnull align 8 dereferenceable(8) %5, ptr noundef %6, i64 noundef %8)
  ret ptr %9
}

; Function Attrs: mustprogress uwtable
define noundef nonnull align 8 dereferenceable(8) ptr @_ZN7mitsubalsERNSt3__113basic_ostreamIcNS0_11char_traitsIcEEEERKNS_23FilterBoundaryConditionE(ptr noundef nonnull align 8 dereferenceable(8) %0, ptr noundef nonnull align 4 dereferenceable(4) %1) #4 {
  %3 = alloca ptr, align 8
  %4 = alloca ptr, align 8
  store ptr %0, ptr %3, align 8
  store ptr %1, ptr %4, align 8
  %5 = load ptr, ptr %4, align 8
  %6 = load i32, ptr %5, align 4
  switch i32 %6, label %22 [
    i32 0, label %7
    i32 1, label %10
    i32 2, label %13
    i32 3, label %16
    i32 4, label %19
  ]

7:                                                ; preds = %2
  %8 = load ptr, ptr %3, align 8
  %9 = call noundef nonnull align 8 dereferenceable(8) ptr @_ZNSt3__1lsB8ne190000INS_11char_traitsIcEEEERNS_13basic_ostreamIcT_EES6_PKc(ptr noundef nonnull align 8 dereferenceable(8) %8, ptr noundef @.str.3)
  br label %25

10:                                               ; preds = %2
  %11 = load ptr, ptr %3, align 8
  %12 = call noundef nonnull align 8 dereferenceable(8) ptr @_ZNSt3__1lsB8ne190000INS_11char_traitsIcEEEERNS_13basic_ostreamIcT_EES6_PKc(ptr noundef nonnull align 8 dereferenceable(8) %11, ptr noundef @.str.4)
  br label %25

13:                                               ; preds = %2
  %14 = load ptr, ptr %3, align 8
  %15 = call noundef nonnull align 8 dereferenceable(8) ptr @_ZNSt3__1lsB8ne190000INS_11char_traitsIcEEEERNS_13basic_ostreamIcT_EES6_PKc(ptr noundef nonnull align 8 dereferenceable(8) %14, ptr noundef @.str.5)
  br label %25

16:                                               ; preds = %2
  %17 = load ptr, ptr %3, align 8
  %18 = call noundef nonnull align 8 dereferenceable(8) ptr @_ZNSt3__1lsB8ne190000INS_11char_traitsIcEEEERNS_13basic_ostreamIcT_EES6_PKc(ptr noundef nonnull align 8 dereferenceable(8) %17, ptr noundef @.str.6)
  br label %25

19:                                               ; preds = %2
  %20 = load ptr, ptr %3, align 8
  %21 = call noundef nonnull align 8 dereferenceable(8) ptr @_ZNSt3__1lsB8ne190000INS_11char_traitsIcEEEERNS_13basic_ostreamIcT_EES6_PKc(ptr noundef nonnull align 8 dereferenceable(8) %20, ptr noundef @.str.7)
  br label %25

22:                                               ; preds = %2
  %23 = load ptr, ptr %3, align 8
  %24 = call noundef nonnull align 8 dereferenceable(8) ptr @_ZNSt3__1lsB8ne190000INS_11char_traitsIcEEEERNS_13basic_ostreamIcT_EES6_PKc(ptr noundef nonnull align 8 dereferenceable(8) %23, ptr noundef @.str.8)
  br label %25

25:                                               ; preds = %22, %19, %16, %13, %10, %7
  %26 = load ptr, ptr %3, align 8
  ret ptr %26
}